; Function Attrs: mustprogress uwtable
define noundef zeroext i1 @_ZNK7rocksdb11PutOperator9FullMergeERKNS_5SliceEPS2_RKSt5dequeINSt7__cxx1112basic_stringIcSt11char_traitsIcESaIcEEESaISB_EEPSB_PNS_6LoggerE(ptr nonnull readnone align 8 captures(none) %0, ptr nonnull readnone align 8 captures(none) %1, ptr readnone captures(none) %2, ptr noundef nonnull readonly align 8 captures(none) dereferenceable(80) %3, ptr noundef %4, ptr readnone captures(none) %5) unnamed_addr #0 align 2 personality ptr @__gxx_personality_v0 {
  %7 = getelementptr inbounds nuw i8, ptr %3, i64 48
  %8 = load ptr, ptr %7, align 8, !tbaa !4, !noalias !12
  %9 = getelementptr inbounds nuw i8, ptr %3, i64 56
  %10 = load ptr, ptr %9, align 8, !tbaa !15, !noalias !12
  %11 = icmp eq ptr %8, %10
  br i1 %11, label %12, label %_ZNKSt5dequeINSt7__cxx1112basic_stringIcSt11char_traitsIcESaIcEEESaIS5_EE4backEv.exit

12:                                               ; preds = %6
  %13 = getelementptr inbounds nuw i8, ptr %3, i64 72
  %14 = load ptr, ptr %13, align 8, !tbaa !16, !noalias !12
  %15 = getelementptr inbounds i8, ptr %14, i64 -8
  %16 = load ptr, ptr %15, align 8, !tbaa !17
  %17 = getelementptr inbounds nuw i8, ptr %16, i64 512
  br label %_ZNKSt5dequeINSt7__cxx1112basic_stringIcSt11char_traitsIcESaIcEEESaIS5_EE4backEv.exit

_ZNKSt5dequeINSt7__cxx1112basic_stringIcSt11char_traitsIcESaIcEEESaIS5_EE4backEv.exit: ; preds = %6, %12
  %18 = phi ptr [ %17, %12 ], [ %8, %6 ]
  %19 = getelementptr inbounds i8, ptr %18, i64 -32
  tail call void @_ZNSt7__cxx1112basic_stringIcSt11char_traitsIcESaIcEE9_M_assignERKS4_(ptr noundef nonnull align 8 dereferenceable(32) %4, ptr noundef nonnull align 8 dereferenceable(32) %19)
  ret i1 true
}